target datalayout = "e-m:e-p270:32:32-p271:32:32-p272:64:64-i64:64-i128:128-f80:128-n8:16:32:64-S128"
target triple = "x86_64-pc-linux-gnu"

%struct.keytype_desc_st = type { ptr, ptr, ptr, i32, i32, ptr, ptr, ptr, ptr, ptr, ptr, ptr, ptr }
%struct.der2key_ctx_st = type { ptr, [256 x i8], ptr, i32, i8 }

; Function Attrs: inlinehint nounwind uwtable
define internal ptr @ml_dsa_d2i_PUBKEY(ptr noundef %0, i64 noundef %1, ptr noundef %2) #5 {
  %4 = alloca ptr, align 8
  %5 = alloca i64, align 8
  %6 = alloca ptr, align 8
  %7 = alloca ptr, align 8
  store ptr %0, ptr %4, align 8, !tbaa !40
  store i64 %1, ptr %5, align 8, !tbaa !15
  store ptr %2, ptr %6, align 8, !tbaa !7
  call void @llvm.lifetime.start.p0(i64 8, ptr %7) #6
  %8 = load ptr, ptr %4, align 8, !tbaa !40
  %9 = load ptr, ptr %8, align 8, !tbaa !13
  %10 = load i64, ptr %5, align 8, !tbaa !15
  %11 = trunc i64 %10 to i32
  %12 = load ptr, ptr %6, align 8, !tbaa !7
  %13 = getelementptr inbounds nuw %struct.der2key_ctx_st, ptr %12, i32 0, i32 2
  %14 = load ptr, ptr %13, align 8, !tbaa !21
  %15 = getelementptr inbounds nuw %struct.keytype_desc_st, ptr %14, i32 0, i32 3
  %16 = load i32, ptr %15, align 8, !tbaa !50
  %17 = load ptr, ptr %6, align 8, !tbaa !7
  %18 = getelementptr inbounds nuw %struct.der2key_ctx_st, ptr %17, i32 0, i32 0
  %19 = load ptr, ptr %18, align 8, !tbaa !25
  %20 = load ptr, ptr %6, align 8, !tbaa !7
  %21 = getelementptr inbounds nuw %struct.der2key_ctx_st, ptr %20, i32 0, i32 1
  %22 = getelementptr inbounds [256 x i8], ptr %21, i64 0, i64 0
  %23 = call ptr @ossl_ml_dsa_d2i_PUBKEY(ptr noundef %9, i32 noundef %11, i32 noundef %16, ptr noundef %19, ptr noundef %22)
  store ptr %23, ptr %7, align 8, !tbaa !55
  %24 = load ptr, ptr %7, align 8, !tbaa !55
  %25 = icmp ne ptr %24, null
  br i1 %25, label %26, label %31

26:                                               ; preds = %3
  %27 = load i64, ptr %5, align 8, !tbaa !15
  %28 = load ptr, ptr %4, align 8, !tbaa !40
  %29 = load ptr, ptr %28, align 8, !tbaa !13
  %30 = getelementptr inbounds i8, ptr %29, i64 %27
  store ptr %30, ptr %28, align 8, !tbaa !13
  br label %31

31:                                               ; preds = %26, %3
  %32 = load ptr, ptr %7, align 8, !tbaa !55
  call void @llvm.lifetime.end.p0(i64 8, ptr %7) #6
  ret ptr %32
}